; Function Attrs: mustprogress nofree norecurse nosync nounwind willreturn memory(argmem: read) uwtable
define hidden noundef i32 @_ZNK5nlsat20interval_set_manager13num_intervalsEPKNS_12interval_setE(ptr noundef nonnull readnone align 8 captures(none) dereferenceable(28) %0, ptr noundef readonly captures(address_is_null) %1) local_unnamed_addr #11 align 2 {
  %3 = icmp eq ptr %1, null
  br i1 %3, label %6, label %4

4:                                                ; preds = %2
  %5 = load i32, ptr %1, align 8, !tbaa !18
  br label %6

6:                                                ; preds = %2, %4
  %.0 = phi i32 [ %5, %4 ], [ 0, %2 ]
  ret i32 %.0
}